Certificate:
    Data:
        Version: 3 (0x2)
        Serial Number: 0 (0x0)
        Signature Algorithm: sha256WithRSAEncryption
        Issuer: O=Oy Hedengren Ab, CN=Hedengren local network root CA v1
        Validity
            Not Before: Apr  9 09:04:30 2025 GMT
            Not After : Mar 16 09:04:30 2125 GMT
        Subject: O=Oy Hedengren Ab, CN=Certificate for Jounin lantronix certificate
        Subject Public Key Info:
            Public Key Algorithm: rsaEncryption
                Public-Key: (4096 bit)
                Modulus:
                    00:be:8d:d1:6a:2b:3c:91:20:6d:ed:65:93:9a:6a:
                    8c:77:f6:6c:aa:64:f5:fb:b5:63:f6:ad:b9:26:e1:
                    8f:6b:bb:bd:25:91:e1:0d:fa:37:85:c9:bc:51:c2:
                    2e:d8:47:8c:a0:2d:15:c8:0c:d8:96:cf:ef:09:92:
                    5d:3a:64:0b:34:4a:26:3a:66:93:a9:80:34:2d:4d:
                    09:10:60:fc:ae:1e:0b:58:e0:57:8c:de:49:27:bc:
                    32:a4:0c:16:ec:b4:c5:31:11:39:22:25:b8:65:54:
                    25:ac:4a:6d:0d:d4:83:05:07:bd:b8:f8:1e:d1:a0:
                    00:5a:01:ce:b3:09:c1:a9:4e:e8:13:a1:cc:55:9a:
                    b9:65:83:08:bc:b9:87:7c:f8:47:e5:28:4c:70:4e:
                    ce:7d:91:97:72:29:c1:0f:ec:37:e1:55:b8:bf:b8:
                    54:bf:fa:73:87:8b:27:9d:b1:5d:45:eb:57:57:c2:
                    70:5c:8a:74:8a:aa:bb:4d:52:ed:e0:e3:fa:9a:4f:
                    6b:bf:44:e0:92:66:ba:a1:93:75:0a:c0:10:df:9e:
                    0e:b9:a5:89:73:5a:c2:c1:73:f1:f9:be:e2:d3:1c:
                    5e:3c:2b:ab:5f:99:17:81:c7:c4:bb:e3:5a:6c:65:
                    2f:19:1c:05:1c:7a:48:33:26:8d:d2:df:4f:ed:28:
                    c8:4a:e2:80:4f:42:8c:a0:61:4f:93:18:d8:3e:a2:
                    c0:11:24:88:0b:72:fb:a5:05:3f:33:9b:24:b4:06:
                    3b:94:1f:43:84:88:a6:5a:f2:d3:04:0d:a8:a2:39:
                    3b:de:41:b9:e5:bb:9f:5b:03:cd:cb:e5:9e:28:5d:
                    f7:99:2f:f2:38:5f:46:94:9c:d3:81:39:40:3c:38:
                    8d:c6:12:15:9e:47:13:d4:3e:f3:02:a5:4c:81:97:
                    13:16:a0:67:45:19:e9:f1:44:1a:59:e7:f1:08:e2:
                    fa:ee:62:91:c0:24:58:cc:ab:6e:a7:68:28:70:47:
                    7f:4b:10:c3:c9:75:ef:bc:fe:b6:55:14:51:6f:ab:
                    fa:4f:b6:27:05:a9:2e:11:b4:82:6b:45:44:08:b4:
                    5e:f7:0b:dd:1f:99:03:df:2f:af:7d:af:8c:8a:12:
                    1e:00:3f:b9:a6:b3:18:a9:91:89:eb:69:8e:ce:8f:
                    78:30:ee:26:3d:b1:eb:fc:c7:48:5c:2b:19:c9:2e:
                    cf:f1:7b:77:c1:be:6d:a9:26:d7:7b:6b:72:45:29:
                    42:ee:b0:e2:46:17:58:07:70:1d:41:03:3d:1b:45:
                    b9:a0:e6:94:dd:8e:60:c5:d7:72:cd:01:19:b7:e7:
                    70:91:c5:8d:db:54:cf:1e:f7:6a:6d:79:eb:ca:37:
                    a9:57:27
                Exponent: 65537 (0x10001)
        X509v3 extensions:
            X509v3 Basic Constraints: 
                CA:FALSE, pathlen:1
            X509v3 Subject Key Identifier: 
                26:B5:B6:E2:76:21:07:2F:B7:46:FE:B8:43:B2:BE:62:6C:A5:61:A5
            X509v3 Authority Key Identifier: 
                F9:B0:C1:B4:35:2D:25:D3:33:B6:FA:6F:0E:BE:B4:94:70:FC:46:39
            X509v3 Key Usage: critical
                Digital Signature, Non Repudiation, Key Encipherment, Data Encipherment
            X509v3 Subject Alternative Name: 
                IP Address:127.0.0.1, IP Address:172.20.221.88, DNS:localhost
    Signature Algorithm: sha256WithRSAEncryption
    Signature Value:
        bd:7d:f8:fe:e7:72:56:05:d3:f1:04:53:7b:8e:65:10:e1:94:
        a0:9a:2a:9b:1f:a3:d1:84:98:39:08:27:ef:6d:f7:7e:62:43:
        85:ee:2b:7b:61:77:43:ac:f7:6b:42:2e:49:ce:5e:cd:a2:dd:
        53:16:ed:43:f6:53:23:d2:5a:3f:f9:ed:b7:30:a3:bd:e3:07:
        c4:31:91:18:ca:5a:79:d9:e5:39:ad:dc:33:51:ed:64:52:b6:
        fd:f7:ac:69:06:2c:5b:86:96:49:fd:3f:08:45:3f:a3:f1:fa:
        66:75:83:16:7c:d7:f6:a2:b9:26:33:20:05:cc:49:4f:c2:a8:
        8a:05:76:db:da:de:41:1f:7f:37:38:b1:5f:46:41:64:b7:c6:
        81:11:fa:3c:29:9f:d4:a8:76:7c:52:24:69:7a:d0:c1:74:d3:
        0d:27:95:69:18:cd:76:06:11:e7:4a:f5:e7:2f:1e:df:14:2a:
        88:c8:a1:4e:ca:b2:84:8c:9f:3e:f8:8c:7b:ad:fe:1e:dd:75:
        02:48:7e:89:c2:06:e3:75:f1:a3:1c:e4:85:fe:73:be:bc:06:
        ff:f5:cb:6d:de:8b:a2:e6:82:7a:92:8d:73:39:86:7c:30:a3:
        0a:f6:c8:49:3a:a8:47:6e:dd:0a:36:03:56:dc:56:bc:bb:27:
        af:3f:9c:fe:44:f1:7f:48:b5:ca:c4:d4:78:ea:8e:54:2e:2b:
        1c:0c:de:fa:6f:af:2c:12:a3:e3:21:7a:b2:e5:4d:71:6e:ca:
        e0:ce:dd:86:96:58:a7:e3:a4:c9:aa:c0:e4:0d:9b:d6:f1:5d:
        d6:55:f2:7d:0b:bd:67:3d:59:26:99:b7:17:0a:a0:19:c2:af:
        ef:58:dc:3f:53:c7:eb:76:7e:1a:c5:78:37:10:83:05:cd:31:
        e6:d5:1d:83:d8:66:76:67:5f:5f:c5:e5:e1:a1:aa:ce:2a:5a:
        90:44:be:8f:04:27:ec:74:d8:ec:c2:7f:2e:f3:be:d7:b3:f9:
        1d:d9:a6:e1:d1:61:5b:2b:7e:0a:e8:7d:b0:cb:78:20:f7:3a:
        d2:b1:d0:ed:a3:9a:bc:57:fe:ff:8f:c6:ed:55:c7:02:69:8d:
        8b:a8:0b:54:4f:26:b4:99:cd:4e:e5:e1:87:91:17:d9:dd:f8:
        ec:85:f1:9d:f2:2e:1a:56:45:a9:9b:e8:42:38:10:dc:93:3c:
        49:fd:b6:e0:c7:20:32:25:57:68:29:33:7d:47:2d:6e:c2:32:
        de:be:af:dd:8d:a1:6c:ff:4a:7d:b5:82:37:a2:df:85:f3:35:
        a4:5d:6a:72:ae:06:fe:9c:ee:9f:af:68:0e:22:e3:98:a0:ee:
        d8:6f:ea:8f:2b:8b:7d:e2
-----BEGIN CERTIFICATE-----
MIIFmTCCA4GgAwIBAgIBADANBgkqhkiG9w0BAQsFADBHMRgwFgYDVQQKDA9PeSBI
ZWRlbmdyZW4gQWIxKzApBgNVBAMMIkhlZGVuZ3JlbiBsb2NhbCBuZXR3b3JrIHJv
b3QgQ0EgdjEwIBcNMjUwNDA5MDkwNDMwWhgPMjEyNTAzMTYwOTA0MzBaMFExGDAW
BgNVBAoMD095IEhlZGVuZ3JlbiBBYjE1MDMGA1UEAwwsQ2VydGlmaWNhdGUgZm9y
IEpvdW5pbiBsYW50cm9uaXggY2VydGlmaWNhdGUwggIiMA0GCSqGSIb3DQEBAQUA
A4ICDwAwggIKAoICAQC+jdFqKzyRIG3tZZOaaox39myqZPX7tWP2rbkm4Y9ru70l
keEN+jeFybxRwi7YR4ygLRXIDNiWz+8Jkl06ZAs0SiY6ZpOpgDQtTQkQYPyuHgtY
4FeM3kknvDKkDBbstMUxETkiJbhlVCWsSm0N1IMFB724+B7RoABaAc6zCcGpTugT
ocxVmrllgwi8uYd8+EflKExwTs59kZdyKcEP7DfhVbi/uFS/+nOHiyedsV1F61dX
wnBcinSKqrtNUu3g4/qaT2u/ROCSZrqhk3UKwBDfng65pYlzWsLBc/H5vuLTHF48
K6tfmReBx8S741psZS8ZHAUcekgzJo3S30/tKMhK4oBPQoygYU+TGNg+osARJIgL
cvulBT8zmyS0BjuUH0OEiKZa8tMEDaiiOTveQbnlu59bA83L5Z4oXfeZL/I4X0aU
nNOBOUA8OI3GEhWeRxPUPvMCpUyBlxMWoGdFGenxRBpZ5/EI4vruYpHAJFjMq26n
aChwR39LEMPJde+8/rZVFFFvq/pPticFqS4RtIJrRUQItF73C90fmQPfL699r4yK
Eh4AP7mmsxipkYnraY7Oj3gw7iY9sev8x0hcKxnJLs/xe3fBvm2pJtd7a3JFKULu
sOJGF1gHcB1BAz0bRbmg5pTdjmDF13LNARm353CRxY3bVM8e92pteevKN6lXJwID
AQABo4GDMIGAMAwGA1UdEwQFMAMCAQEwHQYDVR0OBBYEFCa1tuJ2IQcvt0b+uEOy
vmJspWGlMB8GA1UdIwQYMBaAFPmwwbQ1LSXTM7b6bw6+tJRw/EY5MA4GA1UdDwEB
/wQEAwIE8DAgBgNVHREEGTAXhwR/AAABhwSsFN1Ygglsb2NhbGhvc3QwDQYJKoZI
hvcNAQELBQADggIBAL19+P7nclYF0/EEU3uOZRDhlKCaKpsfo9GEmDkIJ+9t935i
Q4XuK3thd0Os92tCLknOXs2i3VMW7UP2UyPSWj/57bcwo73jB8QxkRjKWnnZ5Tmt
3DNR7WRStv33rGkGLFuGlkn9PwhFP6Px+mZ1gxZ81/aiuSYzIAXMSU/CqIoFdtva
3kEffzc4sV9GQWS3xoER+jwpn9SodnxSJGl60MF00w0nlWkYzXYGEedK9ecvHt8U
KojIoU7KsoSMnz74jHut/h7ddQJIfonCBuN18aMc5IX+c768Bv/1y23ei6LmgnqS
jXM5hnwwowr2yEk6qEdu3Qo2A1bcVry7J68/nP5E8X9ItcrE1HjqjlQuKxwM3vpv
rywSo+MherLlTXFuyuDO3YaWWKfjpMmqwOQNm9bxXdZV8n0LvWc9WSaZtxcKoBnC
r+9Y3D9Tx+t2fhrFeDcQgwXNMebVHYPYZnZnX1/F5eGhqs4qWpBEvo8EJ+x02OzC
fy7zvtez+R3ZpuHRYVsrfgrofbDLeCD3OtKx0O2jmrxX/v+Pxu1VxwJpjYuoC1RP
JrSZzU7l4YeRF9nd+OyF8Z3yLhpWRamb6EI4ENyTPEn9tuDHIDIlV2gpM31HLW7C
Mt6+r92NoWz/Sn21gjei34XzNaRdanKuBv6c7p+vaA4i45ig7thv6o8ri33i
-----END CERTIFICATE-----
