Certificate:
    Data:
        Version: 3 (0x2)
        Serial Number: 0 (0x0)
        Signature Algorithm: sha256WithRSAEncryption
        Issuer: O=Oy Hedengren Ab, CN=jounin-ca
        Validity
            Not Before: Apr  9 11:11:55 2025 GMT
            Not After : Mar 16 11:11:55 2125 GMT
        Subject: O=Oy Hedengren Ab, CN=Certificate for jounin-lantronix-server
        Subject Public Key Info:
            Public Key Algorithm: rsaEncryption
                Public-Key: (4096 bit)
                Modulus:
                    00:9f:70:f3:8d:42:d7:c7:25:d0:e5:fa:5d:d1:8b:
                    a6:6e:8b:dd:b9:74:b8:e7:c5:b5:e9:4e:13:0f:74:
                    7e:21:2d:1c:77:3c:03:a8:2e:e2:6b:b4:53:fd:8f:
                    f4:9d:57:14:95:62:fa:3a:af:44:0d:98:e2:95:c2:
                    97:c4:d2:c9:41:f9:bc:04:12:66:93:96:ca:7b:97:
                    a9:9e:9d:a1:b2:24:3d:81:4a:3a:b2:5f:70:56:ec:
                    52:2f:62:d0:93:f0:ca:6e:1e:67:99:f2:18:b0:78:
                    26:e5:da:61:26:0c:5c:99:e6:5a:22:f9:1d:9e:44:
                    d0:02:5d:c5:d8:39:59:6d:91:eb:a5:6a:16:87:dd:
                    34:2c:d1:db:3a:76:e0:08:81:29:17:53:d3:07:a2:
                    9a:8b:aa:39:4b:f3:4c:2a:34:7b:2f:46:41:6c:eb:
                    d2:fc:7f:ea:e5:f6:e9:14:80:9f:a0:6b:36:19:fd:
                    83:ee:4b:80:d7:47:77:f5:d3:67:f7:4e:dc:07:64:
                    15:27:fe:30:75:da:97:b0:28:62:c9:9a:d9:8a:18:
                    36:a8:f3:ce:55:1a:65:59:1a:13:55:bc:8e:bf:b4:
                    73:27:c1:49:08:36:91:b7:f6:68:4d:a2:a0:d8:69:
                    09:72:50:5c:16:de:3a:10:f4:79:dd:7a:de:62:13:
                    8d:8e:cb:5a:16:f4:50:98:20:ff:83:60:81:46:2f:
                    c5:82:32:f4:d0:d5:9d:8d:4d:73:32:aa:67:f0:ce:
                    41:ca:28:13:79:75:8b:09:3b:4e:80:58:f0:6e:69:
                    a5:28:2d:ae:01:32:ee:d4:f1:71:dd:0c:88:10:93:
                    c4:b4:21:42:65:08:8c:89:a1:41:4c:40:43:03:f1:
                    9f:bb:14:b1:38:73:95:a0:61:7d:66:0f:8a:31:6f:
                    f6:ce:2f:a0:4d:7d:f3:d7:8a:6f:d4:6c:3d:cc:60:
                    9f:d1:f7:16:50:99:9f:f6:ce:4f:cc:72:6a:32:8d:
                    7c:4d:22:16:1a:23:52:84:a4:6b:45:86:7b:c1:26:
                    de:45:7b:5c:08:1a:c0:f5:fd:62:cf:08:89:63:2a:
                    52:76:f0:20:6a:46:09:56:41:9c:8c:e5:28:a1:4b:
                    2c:cb:a2:04:cd:a5:b5:16:c0:99:87:d8:cf:98:69:
                    54:8d:ee:bd:12:a0:b4:16:34:f6:60:75:31:2b:ea:
                    03:42:1b:59:06:ab:b5:ed:30:ed:9a:25:cf:1b:44:
                    cc:a1:eb:6f:99:94:ff:d4:63:37:c0:7f:3e:ef:ba:
                    d6:01:d6:0c:b9:e5:d2:b4:f4:65:80:73:93:d7:14:
                    6e:3e:b2:68:16:6d:2e:ac:e5:e5:6e:3d:5c:fc:39:
                    67:87:cd
                Exponent: 65537 (0x10001)
        X509v3 extensions:
            X509v3 Basic Constraints: 
                CA:FALSE, pathlen:1
            X509v3 Subject Key Identifier: 
                63:4A:F7:A8:69:11:CB:04:91:39:95:9F:41:73:E7:9E:58:F8:82:D0
            X509v3 Authority Key Identifier: 
                5E:52:A7:71:7D:B5:7E:22:A6:77:43:E7:5F:F1:AE:CE:E6:EF:8C:CD
            X509v3 Key Usage: critical
                Digital Signature, Non Repudiation, Key Encipherment, Data Encipherment
            X509v3 Subject Alternative Name: 
                IP Address:127.0.0.1, IP Address:172.20.221.88, DNS:localhost
    Signature Algorithm: sha256WithRSAEncryption
    Signature Value:
        27:de:92:ee:d5:6e:05:c0:da:5d:cc:fc:bb:1b:b8:f7:33:a6:
        27:ad:15:76:9d:1e:5f:01:10:96:89:c3:94:49:33:54:ed:f7:
        ec:b9:30:fb:a2:53:a7:8e:43:23:dd:ae:31:75:d3:41:e5:6e:
        e3:6c:ec:a6:95:8f:11:fe:22:05:3a:3e:66:0b:9f:c8:6b:14:
        a0:21:de:28:cd:3d:87:96:7f:ca:4e:b9:b7:01:45:79:99:70:
        97:d9:7c:68:59:76:0c:3e:3a:31:db:17:e4:3e:08:06:d1:84:
        61:9c:95:a0:25:d6:fa:ab:fa:e4:ad:d6:2b:92:65:f0:d1:10:
        25:ba:88:26:83:8d:9b:21:c2:52:24:a0:76:8c:5b:81:f1:54:
        2b:d4:98:6b:e2:53:9c:06:37:2f:d0:46:6a:11:60:0e:f5:93:
        be:ac:e3:11:e5:72:d7:8c:81:be:00:e1:22:23:5c:a6:0f:c7:
        2d:42:20:c1:1e:80:1a:ca:df:5b:9a:aa:da:95:37:88:bc:56:
        f3:a4:e9:bf:8b:ab:82:c5:3a:13:25:05:a7:33:a3:5c:48:2d:
        03:50:88:bb:1e:b4:20:86:11:4e:9d:6f:84:24:30:81:62:7f:
        3b:31:94:bf:71:7c:4a:85:1d:fc:07:dd:c7:e0:2f:0e:5d:41:
        71:50:8b:d3:b6:0a:0a:1c:09:0b:16:69:a8:12:ec:74:c7:6d:
        6d:1a:e7:63:25:62:63:b3:66:28:15:6a:b7:c5:83:7e:87:f7:
        75:2a:69:0b:59:16:ab:12:f5:d2:36:3f:0c:30:bc:89:11:8b:
        d3:72:4b:16:31:38:c2:10:d5:61:72:43:75:19:35:69:46:6e:
        d1:9e:8e:21:72:f5:de:0d:8e:ec:32:27:e1:98:c0:39:b3:92:
        81:ff:70:1c:0d:66:43:f9:66:f0:1b:d2:d0:b6:7b:ca:4d:84:
        b1:a0:27:96:79:88:e6:64:1e:66:1a:ef:95:ee:08:ad:d5:a3:
        78:2e:e6:6c:6c:9e:36:36:17:6c:9a:9b:12:50:b4:ff:9c:5d:
        e1:ac:65:c2:51:18:01:a2:9f:d6:bd:9f:db:a0:fc:b9:67:5a:
        3d:74:6c:ce:12:06:56:4b:8f:5e:a8:c8:7a:2c:58:d1:26:49:
        51:22:75:1c:00:5f:ad:68:49:3e:ea:1f:f9:f5:d5:41:48:8b:
        5d:36:31:08:f4:eb:5d:b3:dd:34:60:4e:20:33:76:5e:53:4f:
        ad:c1:06:b1:52:54:04:f6:44:c9:87:fb:1a:c5:a8:be:f9:0a:
        2a:6c:34:c9:5a:06:96:d8:b0:5b:94:c2:02:b3:6b:40:8f:9f:
        7c:cd:fc:be:f9:7f:17:9d
-----BEGIN CERTIFICATE-----
MIIFezCCA2OgAwIBAgIBADANBgkqhkiG9w0BAQsFADAuMRgwFgYDVQQKDA9PeSBI
ZWRlbmdyZW4gQWIxEjAQBgNVBAMMCWpvdW5pbi1jYTAgFw0yNTA0MDkxMTExNTVa
GA8yMTI1MDMxNjExMTE1NVowTDEYMBYGA1UECgwPT3kgSGVkZW5ncmVuIEFiMTAw
LgYDVQQDDCdDZXJ0aWZpY2F0ZSBmb3Igam91bmluLWxhbnRyb25peC1zZXJ2ZXIw
ggIiMA0GCSqGSIb3DQEBAQUAA4ICDwAwggIKAoICAQCfcPONQtfHJdDl+l3Ri6Zu
i925dLjnxbXpThMPdH4hLRx3PAOoLuJrtFP9j/SdVxSVYvo6r0QNmOKVwpfE0slB
+bwEEmaTlsp7l6menaGyJD2BSjqyX3BW7FIvYtCT8MpuHmeZ8hiweCbl2mEmDFyZ
5loi+R2eRNACXcXYOVltkeulahaH3TQs0ds6duAIgSkXU9MHopqLqjlL80wqNHsv
RkFs69L8f+rl9ukUgJ+gazYZ/YPuS4DXR3f102f3TtwHZBUn/jB12pewKGLJmtmK
GDao885VGmVZGhNVvI6/tHMnwUkINpG39mhNoqDYaQlyUFwW3joQ9Hndet5iE42O
y1oW9FCYIP+DYIFGL8WCMvTQ1Z2NTXMyqmfwzkHKKBN5dYsJO06AWPBuaaUoLa4B
Mu7U8XHdDIgQk8S0IUJlCIyJoUFMQEMD8Z+7FLE4c5WgYX1mD4oxb/bOL6BNffPX
im/UbD3MYJ/R9xZQmZ/2zk/McmoyjXxNIhYaI1KEpGtFhnvBJt5Fe1wIGsD1/WLP
CIljKlJ28CBqRglWQZyM5SihSyzLogTNpbUWwJmH2M+YaVSN7r0SoLQWNPZgdTEr
6gNCG1kGq7XtMO2aJc8bRMyh62+ZlP/UYzfAfz7vutYB1gy55dK09GWAc5PXFG4+
smgWbS6s5eVuPVz8OWeHzQIDAQABo4GDMIGAMAwGA1UdEwQFMAMCAQEwHQYDVR0O
BBYEFGNK96hpEcsEkTmVn0Fz555Y+ILQMB8GA1UdIwQYMBaAFF5Sp3F9tX4ipndD
51/xrs7m74zNMA4GA1UdDwEB/wQEAwIE8DAgBgNVHREEGTAXhwR/AAABhwSsFN1Y
gglsb2NhbGhvc3QwDQYJKoZIhvcNAQELBQADggIBACfeku7VbgXA2l3M/LsbuPcz
pietFXadHl8BEJaJw5RJM1Tt9+y5MPuiU6eOQyPdrjF100HlbuNs7KaVjxH+IgU6
PmYLn8hrFKAh3ijNPYeWf8pOubcBRXmZcJfZfGhZdgw+OjHbF+Q+CAbRhGGclaAl
1vqr+uSt1iuSZfDRECW6iCaDjZshwlIkoHaMW4HxVCvUmGviU5wGNy/QRmoRYA71
k76s4xHlcteMgb4A4SIjXKYPxy1CIMEegBrK31uaqtqVN4i8VvOk6b+Lq4LFOhMl
Baczo1xILQNQiLsetCCGEU6db4QkMIFifzsxlL9xfEqFHfwH3cfgLw5dQXFQi9O2
CgocCQsWaagS7HTHbW0a52MlYmOzZigVarfFg36H93UqaQtZFqsS9dI2PwwwvIkR
i9NySxYxOMIQ1WFyQ3UZNWlGbtGejiFy9d4NjuwyJ+GYwDmzkoH/cBwNZkP5ZvAb
0tC2e8pNhLGgJ5Z5iOZkHmYa75XuCK3Vo3gu5mxsnjY2F2yamxJQtP+cXeGsZcJR
GAGin9a9n9ug/LlnWj10bM4SBlZLj16oyHosWNEmSVEidRwAX61oST7qH/n11UFI
i102MQj0612z3TRgTiAzdl5TT63BBrFSVAT2RMmH+xrFqL75CipsNMlaBpbYsFuU
wgKza0CPn3zN/L75fxed
-----END CERTIFICATE-----
